target datalayout = "e-m:e-p270:32:32-p271:32:32-p272:64:64-i64:64-i128:128-f80:128-n8:16:32:64-S128"
target triple = "x86_64-pc-linux-gnu"

%class.LogTagSet = type { ptr, i64, [5 x i32], [4 x i8], %class.LogOutputList, %class.LogDecorators, ptr }
%class.LogOutputList = type <{ [6 x ptr], i32, [4 x i8] }>
%class.LogDecorators = type { i32 }
%"struct.NMTUtil::S" = type { ptr, ptr }
%class.NativeCallStack = type { [4 x ptr] }
%class.VirtualMemoryRegion = type { ptr, i64 }
%class.ReservedMemoryRegion = type <{ %class.VirtualMemoryRegion, %class.SortedLinkedList, %class.NativeCallStack, i8, [7 x i8] }>
%class.SortedLinkedList = type { %class.LinkedListImpl }
%class.LinkedListImpl = type { %class.LinkedList, ptr }
%class.LinkedList = type { ptr, ptr }

@_ZN20VirtualMemoryTracker17_reserved_regionsE = hidden global ptr null, align 8
@.str.12 = private unnamed_addr constant [73 x i8] c"Add committed region '%s', No reserved region found for  (0x%016lx, %lu)\00", align 1
@.str.13 = private unnamed_addr constant [44 x i8] c"Add committed region '%s'(0x%016lx, %lu) %s\00", align 1
@.str.14 = private unnamed_addr constant [10 x i8] c"Succeeded\00", align 1
@.str.15 = private unnamed_addr constant [7 x i8] c"Failed\00", align 1
@_ZN16LogTagSetMappingILN6LogTag4typeE95ELS1_0ELS1_0ELS1_0ELS1_0ELS1_0EE7_tagsetE = linkonce_odr hidden global %class.LogTagSet zeroinitializer, comdat, align 8
@_ZN7NMTUtil8_stringsE = external global [28 x %"struct.NMTUtil::S"], align 16
@_ZN15NativeCallStack12_empty_stackE = external global %class.NativeCallStack, align 8

; Function Attrs: mustprogress nounwind uwtable
define linkonce_odr hidden void @_ZN10LinkedListI21CommittedMemoryRegionED2Ev(ptr noundef nonnull align 8 dereferenceable(16) %0) unnamed_addr #1 comdat align 2 {
  %2 = alloca ptr, align 8
  store ptr %0, ptr %2, align 8
  ret void
}

; Function Attrs: mustprogress nounwind uwtable
define linkonce_odr hidden void @_ZN10LinkedListI21CommittedMemoryRegionEC2Ev(ptr noundef nonnull align 8 dereferenceable(16) %0) unnamed_addr #1 comdat align 2 {
  %2 = alloca ptr, align 8
  store ptr %0, ptr %2, align 8
  %3 = load ptr, ptr %2, align 8
  store ptr getelementptr inbounds inrange(-16, 112) ({ [16 x ptr] }, ptr @_ZTV10LinkedListI21CommittedMemoryRegionE, i32 0, i32 0, i32 2), ptr %3, align 8
  %4 = getelementptr inbounds %class.LinkedList, ptr %3, i32 0, i32 1
  store ptr null, ptr %4, align 8
  ret void
}

; Function Attrs: mustprogress nounwind uwtable
define linkonce_odr hidden void @_ZN14LinkedListImplI21CommittedMemoryRegionLN6AnyObj15allocation_typeE2EL8MEMFLAGS12ELN17AllocFailStrategy13AllocFailEnumE1EED2Ev(ptr noundef nonnull align 8 dereferenceable(24) %0) unnamed_addr #1 comdat align 2 {
  %2 = alloca ptr, align 8
  store ptr %0, ptr %2, align 8
  %3 = load ptr, ptr %2, align 8
  store ptr getelementptr inbounds inrange(-16, 120) ({ [17 x ptr] }, ptr @_ZTV14LinkedListImplI21CommittedMemoryRegionLN6AnyObj15allocation_typeE2EL8MEMFLAGS12ELN17AllocFailStrategy13AllocFailEnumE1EE, i32 0, i32 0, i32 2), ptr %3, align 8
  %4 = load ptr, ptr %3, align 8
  %5 = getelementptr inbounds ptr, ptr %4, i64 14
  %6 = load ptr, ptr %5, align 8
  call void %6(ptr noundef nonnull align 8 dereferenceable(24) %3)
  call void @_ZN10LinkedListI21CommittedMemoryRegionED2Ev(ptr noundef nonnull align 8 dereferenceable(16) %3) #10
  ret void
}

; Function Attrs: mustprogress nounwind uwtable
define linkonce_odr hidden noundef i32 @_ZN7NMTUtil13flag_to_indexE8MEMFLAGS(i8 noundef zeroext %0) #1 comdat align 2 {
  %2 = alloca i8, align 1
  store i8 %0, ptr %2, align 1
  %3 = load i8, ptr %2, align 1
  %4 = zext i8 %3 to i32
  ret i32 %4
}

; Function Attrs: mustprogress nounwind uwtable
define linkonce_odr hidden noundef zeroext i1 @_ZNK13LogOutputList8is_levelEN8LogLevel4typeE(ptr noundef nonnull align 8 dereferenceable(52) %0, i32 noundef %1) #1 comdat align 2 {
  %3 = alloca ptr, align 8
  %4 = alloca i32, align 4
  store ptr %0, ptr %3, align 8
  store i32 %1, ptr %4, align 4
  %5 = load ptr, ptr %3, align 8
  %6 = getelementptr inbounds %class.LogOutputList, ptr %5, i32 0, i32 0
  %7 = load i32, ptr %4, align 4
  %8 = zext i32 %7 to i64
  %9 = getelementptr inbounds [6 x ptr], ptr %6, i64 0, i64 %8
  %10 = load volatile ptr, ptr %9, align 8
  %11 = icmp ne ptr %10, null
  ret i1 %11
}

; Function Attrs: mustprogress nounwind uwtable
define linkonce_odr hidden void @_ZN14LinkedListImplI21CommittedMemoryRegionLN6AnyObj15allocation_typeE2EL8MEMFLAGS12ELN17AllocFailStrategy13AllocFailEnumE1EEC2Ev(ptr noundef nonnull align 8 dereferenceable(24) %0) unnamed_addr #1 comdat align 2 {
  %2 = alloca ptr, align 8
  store ptr %0, ptr %2, align 8
  %3 = load ptr, ptr %2, align 8
  call void @_ZN10LinkedListI21CommittedMemoryRegionEC2Ev(ptr noundef nonnull align 8 dereferenceable(16) %3)
  store ptr getelementptr inbounds inrange(-16, 120) ({ [17 x ptr] }, ptr @_ZTV14LinkedListImplI21CommittedMemoryRegionLN6AnyObj15allocation_typeE2EL8MEMFLAGS12ELN17AllocFailStrategy13AllocFailEnumE1EE, i32 0, i32 0, i32 2), ptr %3, align 8
  %4 = getelementptr inbounds %class.LinkedListImpl, ptr %3, i32 0, i32 1
  store ptr null, ptr %4, align 8
  ret void
}

; Function Attrs: mustprogress nounwind uwtable
define linkonce_odr hidden void @_ZN16SortedLinkedListI21CommittedMemoryRegionXadL_Z24compare_committed_regionRKS0_S2_EELN6AnyObj15allocation_typeE2EL8MEMFLAGS12ELN17AllocFailStrategy13AllocFailEnumE1EED2Ev(ptr noundef nonnull align 8 dereferenceable(24) %0) unnamed_addr #1 comdat align 2 {
  %2 = alloca ptr, align 8
  store ptr %0, ptr %2, align 8
  %3 = load ptr, ptr %2, align 8
  call void @_ZN14LinkedListImplI21CommittedMemoryRegionLN6AnyObj15allocation_typeE2EL8MEMFLAGS12ELN17AllocFailStrategy13AllocFailEnumE1EED2Ev(ptr noundef nonnull align 8 dereferenceable(24) %3) #10
  ret void
}

; Function Attrs: mustprogress nounwind uwtable
define linkonce_odr hidden noundef ptr @_ZN7NMTUtil12flag_to_nameE8MEMFLAGS(i8 noundef zeroext %0) #1 comdat align 2 {
  %2 = alloca i8, align 1
  store i8 %0, ptr %2, align 1
  %3 = load i8, ptr %2, align 1
  %4 = call noundef i32 @_ZN7NMTUtil13flag_to_indexE8MEMFLAGS(i8 noundef zeroext %3)
  %5 = sext i32 %4 to i64
  %6 = getelementptr inbounds [28 x %"struct.NMTUtil::S"], ptr @_ZN7NMTUtil8_stringsE, i64 0, i64 %5
  %7 = getelementptr inbounds %"struct.NMTUtil::S", ptr %6, i32 0, i32 1
  %8 = load ptr, ptr %7, align 8
  ret ptr %8
}

; Function Attrs: mustprogress nounwind uwtable
define linkonce_odr hidden noundef zeroext i1 @_ZNK9LogTagSet8is_levelEN8LogLevel4typeE(ptr noundef nonnull align 8 dereferenceable(112) %0, i32 noundef %1) #1 comdat align 2 {
  %3 = alloca ptr, align 8
  %4 = alloca i32, align 4
  store ptr %0, ptr %3, align 8
  store i32 %1, ptr %4, align 4
  %5 = load ptr, ptr %3, align 8
  %6 = getelementptr inbounds %class.LogTagSet, ptr %5, i32 0, i32 4
  %7 = load i32, ptr %4, align 4
  %8 = call noundef zeroext i1 @_ZNK13LogOutputList8is_levelEN8LogLevel4typeE(ptr noundef nonnull align 8 dereferenceable(52) %6, i32 noundef %7)
  ret i1 %8
}

; Function Attrs: mustprogress nounwind uwtable
define linkonce_odr hidden noundef nonnull align 8 dereferenceable(112) ptr @_ZN16LogTagSetMappingILN6LogTag4typeE95ELS1_0ELS1_0ELS1_0ELS1_0ELS1_0EE6tagsetEv() #1 comdat align 2 {
  ret ptr @_ZN16LogTagSetMappingILN6LogTag4typeE95ELS1_0ELS1_0ELS1_0ELS1_0ELS1_0EE7_tagsetE
}

; Function Attrs: mustprogress nounwind uwtable
define linkonce_odr hidden noundef nonnull align 8 dereferenceable(32) ptr @_ZN15NativeCallStack11empty_stackEv() #1 comdat align 2 {
  ret ptr @_ZN15NativeCallStack12_empty_stackE
}

; Function Attrs: mustprogress nounwind uwtable
define linkonce_odr hidden void @_ZN16SortedLinkedListI21CommittedMemoryRegionXadL_Z24compare_committed_regionRKS0_S2_EELN6AnyObj15allocation_typeE2EL8MEMFLAGS12ELN17AllocFailStrategy13AllocFailEnumE1EEC2Ev(ptr noundef nonnull align 8 dereferenceable(24) %0) unnamed_addr #1 comdat align 2 {
  %2 = alloca ptr, align 8
  store ptr %0, ptr %2, align 8
  %3 = load ptr, ptr %2, align 8
  call void @_ZN14LinkedListImplI21CommittedMemoryRegionLN6AnyObj15allocation_typeE2EL8MEMFLAGS12ELN17AllocFailStrategy13AllocFailEnumE1EEC2Ev(ptr noundef nonnull align 8 dereferenceable(24) %3)
  store ptr getelementptr inbounds inrange(-16, 120) ({ [17 x ptr] }, ptr @_ZTV16SortedLinkedListI21CommittedMemoryRegionXadL_Z24compare_committed_regionRKS0_S2_EELN6AnyObj15allocation_typeE2EL8MEMFLAGS12ELN17AllocFailStrategy13AllocFailEnumE1EE, i32 0, i32 0, i32 2), ptr %3, align 8
  ret void
}

; Function Attrs: mustprogress nounwind uwtable
define linkonce_odr hidden void @_ZN19VirtualMemoryRegionC2EPhm(ptr noundef nonnull align 8 dereferenceable(16) %0, ptr noundef %1, i64 noundef %2) unnamed_addr #1 comdat align 2 {
  %4 = alloca ptr, align 8
  %5 = alloca ptr, align 8
  %6 = alloca i64, align 8
  store ptr %0, ptr %4, align 8
  store ptr %1, ptr %5, align 8
  store i64 %2, ptr %6, align 8
  %7 = load ptr, ptr %4, align 8
  %8 = getelementptr inbounds %class.VirtualMemoryRegion, ptr %7, i32 0, i32 0
  %9 = load ptr, ptr %5, align 8
  store ptr %9, ptr %8, align 8
  %10 = getelementptr inbounds %class.VirtualMemoryRegion, ptr %7, i32 0, i32 1
  %11 = load i64, ptr %6, align 8
  store i64 %11, ptr %10, align 8
  ret void
}

; Function Attrs: mustprogress nounwind uwtable
define linkonce_odr hidden void @_ZN20ReservedMemoryRegionD2Ev(ptr noundef nonnull align 8 dereferenceable(73) %0) unnamed_addr #1 comdat align 2 {
  %2 = alloca ptr, align 8
  store ptr %0, ptr %2, align 8
  %3 = load ptr, ptr %2, align 8
  %4 = getelementptr inbounds %class.ReservedMemoryRegion, ptr %3, i32 0, i32 1
  call void @_ZN16SortedLinkedListI21CommittedMemoryRegionXadL_Z24compare_committed_regionRKS0_S2_EELN6AnyObj15allocation_typeE2EL8MEMFLAGS12ELN17AllocFailStrategy13AllocFailEnumE1EED2Ev(ptr noundef nonnull align 8 dereferenceable(24) %4) #10
  ret void
}

; Function Attrs: mustprogress nounwind uwtable
define linkonce_odr hidden noundef i64 @_ZNK19VirtualMemoryRegion4sizeEv(ptr noundef nonnull align 8 dereferenceable(16) %0) #1 comdat align 2 {
  %2 = alloca ptr, align 8
  store ptr %0, ptr %2, align 8
  %3 = load ptr, ptr %2, align 8
  %4 = getelementptr inbounds %class.VirtualMemoryRegion, ptr %3, i32 0, i32 1
  %5 = load i64, ptr %4, align 8
  ret i64 %5
}

; Function Attrs: mustprogress nounwind uwtable
define linkonce_odr hidden noundef i64 @_Z3p2iPVKv(ptr noundef %0) #1 comdat {
  %2 = alloca ptr, align 8
  store ptr %0, ptr %2, align 8
  %3 = load ptr, ptr %2, align 8
  %4 = ptrtoint ptr %3 to i64
  ret i64 %4
}

; Function Attrs: mustprogress nounwind uwtable
define linkonce_odr hidden noundef ptr @_ZNK19VirtualMemoryRegion4baseEv(ptr noundef nonnull align 8 dereferenceable(16) %0) #1 comdat align 2 {
  %2 = alloca ptr, align 8
  store ptr %0, ptr %2, align 8
  %3 = load ptr, ptr %2, align 8
  %4 = getelementptr inbounds %class.VirtualMemoryRegion, ptr %3, i32 0, i32 0
  %5 = load ptr, ptr %4, align 8
  ret ptr %5
}

; Function Attrs: mustprogress nounwind uwtable
define linkonce_odr hidden noundef ptr @_ZNK20ReservedMemoryRegion9flag_nameEv(ptr noundef nonnull align 8 dereferenceable(73) %0) #1 comdat align 2 {
  %2 = alloca ptr, align 8
  store ptr %0, ptr %2, align 8
  %3 = load ptr, ptr %2, align 8
  %4 = getelementptr inbounds %class.ReservedMemoryRegion, ptr %3, i32 0, i32 3
  %5 = load i8, ptr %4, align 8
  %6 = call noundef ptr @_ZN7NMTUtil12flag_to_nameE8MEMFLAGS(i8 noundef zeroext %5)
  ret ptr %6
}

; Function Attrs: mustprogress nounwind uwtable
define linkonce_odr hidden noundef zeroext i1 @_ZN7LogImplILN6LogTag4typeE95ELS1_0ELS1_0ELS1_0ELS1_0ELS1_0EE8is_levelEN8LogLevel4typeE(i32 noundef %0) #1 comdat align 2 {
  %2 = alloca i32, align 4
  store i32 %0, ptr %2, align 4
  %3 = call noundef nonnull align 8 dereferenceable(112) ptr @_ZN16LogTagSetMappingILN6LogTag4typeE95ELS1_0ELS1_0ELS1_0ELS1_0ELS1_0EE6tagsetEv()
  %4 = load i32, ptr %2, align 4
  %5 = call noundef zeroext i1 @_ZNK9LogTagSet8is_levelEN8LogLevel4typeE(ptr noundef nonnull align 8 dereferenceable(112) %3, i32 noundef %4)
  ret i1 %5
}

; Function Attrs: mustprogress nounwind uwtable
define linkonce_odr hidden void @_ZN20ReservedMemoryRegionC2EPhm(ptr noundef nonnull align 8 dereferenceable(73) %0, ptr noundef %1, i64 noundef %2) unnamed_addr #1 comdat align 2 {
  %4 = alloca ptr, align 8
  %5 = alloca ptr, align 8
  %6 = alloca i64, align 8
  store ptr %0, ptr %4, align 8
  store ptr %1, ptr %5, align 8
  store i64 %2, ptr %6, align 8
  %7 = load ptr, ptr %4, align 8
  %8 = load ptr, ptr %5, align 8
  %9 = load i64, ptr %6, align 8
  call void @_ZN19VirtualMemoryRegionC2EPhm(ptr noundef nonnull align 8 dereferenceable(16) %7, ptr noundef %8, i64 noundef %9)
  %10 = getelementptr inbounds %class.ReservedMemoryRegion, ptr %7, i32 0, i32 1
  call void @_ZN16SortedLinkedListI21CommittedMemoryRegionXadL_Z24compare_committed_regionRKS0_S2_EELN6AnyObj15allocation_typeE2EL8MEMFLAGS12ELN17AllocFailStrategy13AllocFailEnumE1EEC2Ev(ptr noundef nonnull align 8 dereferenceable(24) %10)
  %11 = getelementptr inbounds %class.ReservedMemoryRegion, ptr %7, i32 0, i32 2
  %12 = call noundef nonnull align 8 dereferenceable(32) ptr @_ZN15NativeCallStack11empty_stackEv()
  call void @llvm.memcpy.p0.p0.i64(ptr align 8 %11, ptr align 8 %12, i64 32, i1 false)
  %13 = getelementptr inbounds %class.ReservedMemoryRegion, ptr %7, i32 0, i32 3
  store i8 27, ptr %13, align 8
  ret void
}

; Function Attrs: mustprogress nounwind uwtable
define hidden noundef zeroext i1 @_ZN20VirtualMemoryTracker20add_committed_regionEPhmRK15NativeCallStack(ptr noundef %0, i64 noundef %1, ptr noundef nonnull align 8 dereferenceable(32) %2) #1 align 2 {
  %4 = alloca ptr, align 8
  %5 = alloca i64, align 8
  %6 = alloca ptr, align 8
  %7 = alloca %class.ReservedMemoryRegion, align 8
  %8 = alloca ptr, align 8
  %9 = alloca i8, align 1
  store ptr %0, ptr %4, align 8
  store i64 %1, ptr %5, align 8
  store ptr %2, ptr %6, align 8
  %10 = load ptr, ptr %4, align 8
  %11 = load i64, ptr %5, align 8
  call void @_ZN20ReservedMemoryRegionC2EPhm(ptr noundef nonnull align 8 dereferenceable(73) %7, ptr noundef %10, i64 noundef %11)
  %12 = load ptr, ptr @_ZN20VirtualMemoryTracker17_reserved_regionsE, align 8
  %13 = load ptr, ptr %12, align 8
  %14 = getelementptr inbounds ptr, ptr %13, i64 7
  %15 = load ptr, ptr %14, align 8
  %16 = call noundef ptr %15(ptr noundef nonnull align 8 dereferenceable(24) %12, ptr noundef nonnull align 8 dereferenceable(73) %7)
  store ptr %16, ptr %8, align 8
  %17 = load ptr, ptr %8, align 8
  %18 = icmp eq ptr %17, null
  br i1 %18, label %19, label %28

19:                                               ; preds = %3
  %20 = call noundef zeroext i1 @_ZN7LogImplILN6LogTag4typeE95ELS1_0ELS1_0ELS1_0ELS1_0ELS1_0EE8is_levelEN8LogLevel4typeE(i32 noundef 2)
  br i1 %20, label %22, label %21

21:                                               ; preds = %19
  br label %27

22:                                               ; preds = %19
  %23 = call noundef ptr @_ZNK20ReservedMemoryRegion9flag_nameEv(ptr noundef nonnull align 8 dereferenceable(73) %7)
  %24 = call noundef ptr @_ZNK19VirtualMemoryRegion4baseEv(ptr noundef nonnull align 8 dereferenceable(16) %7)
  %25 = call noundef i64 @_Z3p2iPVKv(ptr noundef %24)
  %26 = call noundef i64 @_ZNK19VirtualMemoryRegion4sizeEv(ptr noundef nonnull align 8 dereferenceable(16) %7)
  call void (ptr, ...) @_ZN7LogImplILN6LogTag4typeE95ELS1_0ELS1_0ELS1_0ELS1_0ELS1_0EE5writeILN8LogLevel4typeE2EEEvPKcz(ptr noundef @.str.12, ptr noundef %23, i64 noundef %25, i64 noundef %26)
  br label %27

27:                                               ; preds = %22, %21
  br label %28

28:                                               ; preds = %27, %3
  %29 = load ptr, ptr %8, align 8
  %30 = load ptr, ptr %4, align 8
  %31 = load i64, ptr %5, align 8
  %32 = load ptr, ptr %6, align 8
  %33 = call noundef zeroext i1 @_ZN20ReservedMemoryRegion20add_committed_regionEPhmRK15NativeCallStack(ptr noundef nonnull align 8 dereferenceable(73) %29, ptr noundef %30, i64 noundef %31, ptr noundef nonnull align 8 dereferenceable(32) %32)
  %34 = zext i1 %33 to i8
  store i8 %34, ptr %9, align 1
  %35 = call noundef zeroext i1 @_ZN7LogImplILN6LogTag4typeE95ELS1_0ELS1_0ELS1_0ELS1_0ELS1_0EE8is_levelEN8LogLevel4typeE(i32 noundef 2)
  br i1 %35, label %37, label %36

36:                                               ; preds = %28
  br label %46

37:                                               ; preds = %28
  %38 = load ptr, ptr %8, align 8
  %39 = call noundef ptr @_ZNK20ReservedMemoryRegion9flag_nameEv(ptr noundef nonnull align 8 dereferenceable(73) %38)
  %40 = call noundef ptr @_ZNK19VirtualMemoryRegion4baseEv(ptr noundef nonnull align 8 dereferenceable(16) %7)
  %41 = call noundef i64 @_Z3p2iPVKv(ptr noundef %40)
  %42 = call noundef i64 @_ZNK19VirtualMemoryRegion4sizeEv(ptr noundef nonnull align 8 dereferenceable(16) %7)
  %43 = load i8, ptr %9, align 1
  %44 = trunc i8 %43 to i1
  %45 = select i1 %44, ptr @.str.14, ptr @.str.15
  call void (ptr, ...) @_ZN7LogImplILN6LogTag4typeE95ELS1_0ELS1_0ELS1_0ELS1_0ELS1_0EE5writeILN8LogLevel4typeE2EEEvPKcz(ptr noundef @.str.13, ptr noundef %39, i64 noundef %41, i64 noundef %42, ptr noundef %45)
  br label %46

46:                                               ; preds = %37, %36
  %47 = load i8, ptr %9, align 1
  %48 = trunc i8 %47 to i1
  call void @_ZN20ReservedMemoryRegionD2Ev(ptr noundef nonnull align 8 dereferenceable(73) %7) #10
  ret i1 %48
}