; Function Attrs: mustprogress nounwind uwtable
define hidden noundef zeroext i1 @_ZN20VirtualMemoryTracker20add_committed_regionEPhmRK15NativeCallStack(ptr noundef %0, i64 noundef %1, ptr nocapture noundef nonnull readonly align 8 dereferenceable(32) %2) local_unnamed_addr #0 align 2 {
  %4 = alloca %class.ReservedMemoryRegion, align 8
  store ptr %0, ptr %4, align 8
  %5 = getelementptr inbounds i8, ptr %4, i64 8
  store i64 %1, ptr %5, align 8
  %6 = getelementptr inbounds i8, ptr %4, i64 16
  %7 = getelementptr inbounds i8, ptr %4, i64 24
  call void @llvm.memset.p0.i64(ptr noundef nonnull align 8 dereferenceable(16) %7, i8 0, i64 16, i1 false)
  store ptr getelementptr inbounds inrange(-16, 120) (i8, ptr @_ZTV16SortedLinkedListI21CommittedMemoryRegionXadL_Z24compare_committed_regionRKS0_S2_EELN6AnyObj15allocation_typeE2EL8MEMFLAGS12ELN17AllocFailStrategy13AllocFailEnumE1EE, i64 16), ptr %6, align 8
  %8 = getelementptr inbounds i8, ptr %4, i64 40
  call void @llvm.memcpy.p0.p0.i64(ptr noundef nonnull align 8 dereferenceable(32) %8, ptr noundef nonnull align 8 dereferenceable(32) @_ZN15NativeCallStack12_empty_stackE, i64 32, i1 false)
  %9 = getelementptr inbounds i8, ptr %4, i64 72
  store i8 27, ptr %9, align 8
  %10 = load ptr, ptr @_ZN20VirtualMemoryTracker17_reserved_regionsE, align 8
  %11 = load ptr, ptr %10, align 8
  %12 = getelementptr inbounds i8, ptr %11, i64 56
  %13 = load ptr, ptr %12, align 8
  %14 = call noundef ptr %13(ptr noundef nonnull align 8 dereferenceable(24) %10, ptr noundef nonnull align 8 dereferenceable(73) %4) #14
  %15 = icmp eq ptr %14, null
  br i1 %15, label %16, label %26

16:                                               ; preds = %3
  %17 = load volatile ptr, ptr getelementptr inbounds (i8, ptr @_ZN16LogTagSetMappingILN6LogTag4typeE95ELS1_0ELS1_0ELS1_0ELS1_0ELS1_0EE7_tagsetE, i64 56), align 8
  %.not = icmp eq ptr %17, null
  br i1 %.not, label %26, label %18

18:                                               ; preds = %16
  %19 = load i8, ptr %9, align 8
  %20 = zext i8 %19 to i64
  %21 = getelementptr inbounds [28 x %"struct.NMTUtil::S"], ptr @_ZN7NMTUtil8_stringsE, i64 0, i64 %20, i32 1
  %22 = load ptr, ptr %21, align 8
  %23 = load ptr, ptr %4, align 8
  %24 = ptrtoint ptr %23 to i64
  %25 = load i64, ptr %5, align 8
  call void (ptr, ...) @_ZN7LogImplILN6LogTag4typeE95ELS1_0ELS1_0ELS1_0ELS1_0ELS1_0EE5writeILN8LogLevel4typeE2EEEvPKcz(ptr noundef nonnull @.str.12, ptr noundef %22, i64 noundef %24, i64 noundef %25)
  br label %26

26:                                               ; preds = %18, %16, %3
  %27 = call noundef zeroext i1 @_ZN20ReservedMemoryRegion20add_committed_regionEPhmRK15NativeCallStack(ptr noundef nonnull align 8 dereferenceable(73) %14, ptr noundef %0, i64 noundef %1, ptr noundef nonnull align 8 dereferenceable(32) %2)
  %28 = load volatile ptr, ptr getelementptr inbounds (i8, ptr @_ZN16LogTagSetMappingILN6LogTag4typeE95ELS1_0ELS1_0ELS1_0ELS1_0ELS1_0EE7_tagsetE, i64 56), align 8
  %.not9 = icmp eq ptr %28, null
  br i1 %.not9, label %39, label %29

29:                                               ; preds = %26
  %30 = getelementptr inbounds i8, ptr %14, i64 72
  %31 = load i8, ptr %30, align 8
  %32 = zext i8 %31 to i64
  %33 = getelementptr inbounds [28 x %"struct.NMTUtil::S"], ptr @_ZN7NMTUtil8_stringsE, i64 0, i64 %32, i32 1
  %34 = load ptr, ptr %33, align 8
  %35 = load ptr, ptr %4, align 8
  %36 = ptrtoint ptr %35 to i64
  %37 = load i64, ptr %5, align 8
  %38 = select i1 %27, ptr @.str.14, ptr @.str.15
  call void (ptr, ...) @_ZN7LogImplILN6LogTag4typeE95ELS1_0ELS1_0ELS1_0ELS1_0ELS1_0EE5writeILN8LogLevel4typeE2EEEvPKcz(ptr noundef nonnull @.str.13, ptr noundef %34, i64 noundef %36, i64 noundef %37, ptr noundef nonnull %38)
  br label %39

39:                                               ; preds = %26, %29
  store ptr getelementptr inbounds inrange(-16, 120) (i8, ptr @_ZTV14LinkedListImplI21CommittedMemoryRegionLN6AnyObj15allocation_typeE2EL8MEMFLAGS12ELN17AllocFailStrategy13AllocFailEnumE1EE, i64 16), ptr %6, align 8
  %40 = load ptr, ptr %7, align 8
  store ptr null, ptr %7, align 8
  %.not5.i.i.i.i = icmp eq ptr %40, null
  br i1 %.not5.i.i.i.i, label %_ZN20ReservedMemoryRegionD2Ev.exit, label %_ZN14LinkedListImplI21CommittedMemoryRegionLN6AnyObj15allocation_typeE2EL8MEMFLAGS12ELN17AllocFailStrategy13AllocFailEnumE1EE11delete_nodeEP14LinkedListNodeIS0_E.exit.i.i.i.i

_ZN14LinkedListImplI21CommittedMemoryRegionLN6AnyObj15allocation_typeE2EL8MEMFLAGS12ELN17AllocFailStrategy13AllocFailEnumE1EE11delete_nodeEP14LinkedListNodeIS0_E.exit.i.i.i.i: ; preds = %39, %_ZN14LinkedListImplI21CommittedMemoryRegionLN6AnyObj15allocation_typeE2EL8MEMFLAGS12ELN17AllocFailStrategy13AllocFailEnumE1EE11delete_nodeEP14LinkedListNodeIS0_E.exit.i.i.i.i
  %.06.i.i.i.i = phi ptr [ %42, %_ZN14LinkedListImplI21CommittedMemoryRegionLN6AnyObj15allocation_typeE2EL8MEMFLAGS12ELN17AllocFailStrategy13AllocFailEnumE1EE11delete_nodeEP14LinkedListNodeIS0_E.exit.i.i.i.i ], [ %40, %39 ]
  %41 = getelementptr inbounds i8, ptr %.06.i.i.i.i, i64 48
  %42 = load ptr, ptr %41, align 8
  call void @_ZN6AnyObjdlEPv(ptr noundef nonnull %.06.i.i.i.i) #14
  %.not.i.i.i.i = icmp eq ptr %42, null
  br i1 %.not.i.i.i.i, label %_ZN20ReservedMemoryRegionD2Ev.exit, label %_ZN14LinkedListImplI21CommittedMemoryRegionLN6AnyObj15allocation_typeE2EL8MEMFLAGS12ELN17AllocFailStrategy13AllocFailEnumE1EE11delete_nodeEP14LinkedListNodeIS0_E.exit.i.i.i.i, !llvm.loop !16

_ZN20ReservedMemoryRegionD2Ev.exit:               ; preds = %_ZN14LinkedListImplI21CommittedMemoryRegionLN6AnyObj15allocation_typeE2EL8MEMFLAGS12ELN17AllocFailStrategy13AllocFailEnumE1EE11delete_nodeEP14LinkedListNodeIS0_E.exit.i.i.i.i, %39
  ret i1 %27
}